target datalayout = "e-m:e-p270:32:32-p271:32:32-p272:64:64-i64:64-i128:128-f80:128-n8:16:32:64-S128"
target triple = "x86_64-pc-linux-gnu"

%struct._php_output_context = type { i32, %struct._php_output_buffer, %struct._php_output_buffer }
%struct._php_output_buffer = type { ptr, i64, i64, i32 }
%struct._php_output_handler = type { ptr, i32, i32, i64, %struct._php_output_buffer, ptr, ptr, %union.anon.2 }
%union.anon.2 = type { ptr }

; Function Attrs: inlinehint nounwind uwtable
define internal void @php_output_context_pass(ptr noundef %0) #1 {
  %2 = alloca ptr, align 8
  store ptr %0, ptr %2, align 8, !tbaa !69
  %3 = load ptr, ptr %2, align 8, !tbaa !69
  %4 = getelementptr inbounds nuw %struct._php_output_context, ptr %3, i32 0, i32 1
  %5 = getelementptr inbounds nuw %struct._php_output_buffer, ptr %4, i32 0, i32 0
  %6 = load ptr, ptr %5, align 8, !tbaa !61
  %7 = load ptr, ptr %2, align 8, !tbaa !69
  %8 = getelementptr inbounds nuw %struct._php_output_context, ptr %7, i32 0, i32 2
  %9 = getelementptr inbounds nuw %struct._php_output_buffer, ptr %8, i32 0, i32 0
  store ptr %6, ptr %9, align 8, !tbaa !67
  %10 = load ptr, ptr %2, align 8, !tbaa !69
  %11 = getelementptr inbounds nuw %struct._php_output_context, ptr %10, i32 0, i32 1
  %12 = getelementptr inbounds nuw %struct._php_output_buffer, ptr %11, i32 0, i32 2
  %13 = load i64, ptr %12, align 8, !tbaa !64
  %14 = load ptr, ptr %2, align 8, !tbaa !69
  %15 = getelementptr inbounds nuw %struct._php_output_context, ptr %14, i32 0, i32 2
  %16 = getelementptr inbounds nuw %struct._php_output_buffer, ptr %15, i32 0, i32 2
  store i64 %13, ptr %16, align 8, !tbaa !68
  %17 = load ptr, ptr %2, align 8, !tbaa !69
  %18 = getelementptr inbounds nuw %struct._php_output_context, ptr %17, i32 0, i32 1
  %19 = getelementptr inbounds nuw %struct._php_output_buffer, ptr %18, i32 0, i32 1
  %20 = load i64, ptr %19, align 8, !tbaa !127
  %21 = load ptr, ptr %2, align 8, !tbaa !69
  %22 = getelementptr inbounds nuw %struct._php_output_context, ptr %21, i32 0, i32 2
  %23 = getelementptr inbounds nuw %struct._php_output_buffer, ptr %22, i32 0, i32 1
  store i64 %20, ptr %23, align 8, !tbaa !128
  %24 = load ptr, ptr %2, align 8, !tbaa !69
  %25 = getelementptr inbounds nuw %struct._php_output_context, ptr %24, i32 0, i32 1
  %26 = getelementptr inbounds nuw %struct._php_output_buffer, ptr %25, i32 0, i32 3
  %27 = load i32, ptr %26, align 8
  %28 = and i32 %27, 1
  %29 = load ptr, ptr %2, align 8, !tbaa !69
  %30 = getelementptr inbounds nuw %struct._php_output_context, ptr %29, i32 0, i32 2
  %31 = getelementptr inbounds nuw %struct._php_output_buffer, ptr %30, i32 0, i32 3
  %32 = load i32, ptr %31, align 8
  %33 = and i32 %28, 1
  %34 = and i32 %32, -2
  %35 = or i32 %34, %33
  store i32 %35, ptr %31, align 8
  %36 = load ptr, ptr %2, align 8, !tbaa !69
  %37 = getelementptr inbounds nuw %struct._php_output_context, ptr %36, i32 0, i32 1
  %38 = getelementptr inbounds nuw %struct._php_output_buffer, ptr %37, i32 0, i32 0
  store ptr null, ptr %38, align 8, !tbaa !61
  %39 = load ptr, ptr %2, align 8, !tbaa !69
  %40 = getelementptr inbounds nuw %struct._php_output_context, ptr %39, i32 0, i32 1
  %41 = getelementptr inbounds nuw %struct._php_output_buffer, ptr %40, i32 0, i32 2
  store i64 0, ptr %41, align 8, !tbaa !64
  %42 = load ptr, ptr %2, align 8, !tbaa !69
  %43 = getelementptr inbounds nuw %struct._php_output_context, ptr %42, i32 0, i32 1
  %44 = getelementptr inbounds nuw %struct._php_output_buffer, ptr %43, i32 0, i32 3
  %45 = load i32, ptr %44, align 8
  %46 = and i32 %45, -2
  %47 = or i32 %46, 0
  store i32 %47, ptr %44, align 8
  %48 = load ptr, ptr %2, align 8, !tbaa !69
  %49 = getelementptr inbounds nuw %struct._php_output_context, ptr %48, i32 0, i32 1
  %50 = getelementptr inbounds nuw %struct._php_output_buffer, ptr %49, i32 0, i32 1
  store i64 0, ptr %50, align 8, !tbaa !127
  ret void
}

; Function Attrs: inlinehint nounwind uwtable
define internal void @php_output_context_swap(ptr noundef %0) #1 {
  %2 = alloca ptr, align 8
  store ptr %0, ptr %2, align 8, !tbaa !69
  %3 = load ptr, ptr %2, align 8, !tbaa !69
  %4 = getelementptr inbounds nuw %struct._php_output_context, ptr %3, i32 0, i32 1
  %5 = getelementptr inbounds nuw %struct._php_output_buffer, ptr %4, i32 0, i32 3
  %6 = load i32, ptr %5, align 8
  %7 = and i32 %6, 1
  %8 = icmp ne i32 %7, 0
  br i1 %8, label %9, label %20

9:                                                ; preds = %1
  %10 = load ptr, ptr %2, align 8, !tbaa !69
  %11 = getelementptr inbounds nuw %struct._php_output_context, ptr %10, i32 0, i32 1
  %12 = getelementptr inbounds nuw %struct._php_output_buffer, ptr %11, i32 0, i32 0
  %13 = load ptr, ptr %12, align 8, !tbaa !61
  %14 = icmp ne ptr %13, null
  br i1 %14, label %15, label %20

15:                                               ; preds = %9
  %16 = load ptr, ptr %2, align 8, !tbaa !69
  %17 = getelementptr inbounds nuw %struct._php_output_context, ptr %16, i32 0, i32 1
  %18 = getelementptr inbounds nuw %struct._php_output_buffer, ptr %17, i32 0, i32 0
  %19 = load ptr, ptr %18, align 8, !tbaa !61
  call void @_efree(ptr noundef %19)
  br label %20

20:                                               ; preds = %15, %9, %1
  %21 = load ptr, ptr %2, align 8, !tbaa !69
  %22 = getelementptr inbounds nuw %struct._php_output_context, ptr %21, i32 0, i32 2
  %23 = getelementptr inbounds nuw %struct._php_output_buffer, ptr %22, i32 0, i32 0
  %24 = load ptr, ptr %23, align 8, !tbaa !67
  %25 = load ptr, ptr %2, align 8, !tbaa !69
  %26 = getelementptr inbounds nuw %struct._php_output_context, ptr %25, i32 0, i32 1
  %27 = getelementptr inbounds nuw %struct._php_output_buffer, ptr %26, i32 0, i32 0
  store ptr %24, ptr %27, align 8, !tbaa !61
  %28 = load ptr, ptr %2, align 8, !tbaa !69
  %29 = getelementptr inbounds nuw %struct._php_output_context, ptr %28, i32 0, i32 2
  %30 = getelementptr inbounds nuw %struct._php_output_buffer, ptr %29, i32 0, i32 2
  %31 = load i64, ptr %30, align 8, !tbaa !68
  %32 = load ptr, ptr %2, align 8, !tbaa !69
  %33 = getelementptr inbounds nuw %struct._php_output_context, ptr %32, i32 0, i32 1
  %34 = getelementptr inbounds nuw %struct._php_output_buffer, ptr %33, i32 0, i32 2
  store i64 %31, ptr %34, align 8, !tbaa !64
  %35 = load ptr, ptr %2, align 8, !tbaa !69
  %36 = getelementptr inbounds nuw %struct._php_output_context, ptr %35, i32 0, i32 2
  %37 = getelementptr inbounds nuw %struct._php_output_buffer, ptr %36, i32 0, i32 3
  %38 = load i32, ptr %37, align 8
  %39 = and i32 %38, 1
  %40 = load ptr, ptr %2, align 8, !tbaa !69
  %41 = getelementptr inbounds nuw %struct._php_output_context, ptr %40, i32 0, i32 1
  %42 = getelementptr inbounds nuw %struct._php_output_buffer, ptr %41, i32 0, i32 3
  %43 = load i32, ptr %42, align 8
  %44 = and i32 %39, 1
  %45 = and i32 %43, -2
  %46 = or i32 %45, %44
  store i32 %46, ptr %42, align 8
  %47 = load ptr, ptr %2, align 8, !tbaa !69
  %48 = getelementptr inbounds nuw %struct._php_output_context, ptr %47, i32 0, i32 2
  %49 = getelementptr inbounds nuw %struct._php_output_buffer, ptr %48, i32 0, i32 1
  %50 = load i64, ptr %49, align 8, !tbaa !128
  %51 = load ptr, ptr %2, align 8, !tbaa !69
  %52 = getelementptr inbounds nuw %struct._php_output_context, ptr %51, i32 0, i32 1
  %53 = getelementptr inbounds nuw %struct._php_output_buffer, ptr %52, i32 0, i32 1
  store i64 %50, ptr %53, align 8, !tbaa !127
  %54 = load ptr, ptr %2, align 8, !tbaa !69
  %55 = getelementptr inbounds nuw %struct._php_output_context, ptr %54, i32 0, i32 2
  %56 = getelementptr inbounds nuw %struct._php_output_buffer, ptr %55, i32 0, i32 0
  store ptr null, ptr %56, align 8, !tbaa !67
  %57 = load ptr, ptr %2, align 8, !tbaa !69
  %58 = getelementptr inbounds nuw %struct._php_output_context, ptr %57, i32 0, i32 2
  %59 = getelementptr inbounds nuw %struct._php_output_buffer, ptr %58, i32 0, i32 2
  store i64 0, ptr %59, align 8, !tbaa !68
  %60 = load ptr, ptr %2, align 8, !tbaa !69
  %61 = getelementptr inbounds nuw %struct._php_output_context, ptr %60, i32 0, i32 2
  %62 = getelementptr inbounds nuw %struct._php_output_buffer, ptr %61, i32 0, i32 3
  %63 = load i32, ptr %62, align 8
  %64 = and i32 %63, -2
  %65 = or i32 %64, 0
  store i32 %65, ptr %62, align 8
  %66 = load ptr, ptr %2, align 8, !tbaa !69
  %67 = getelementptr inbounds nuw %struct._php_output_context, ptr %66, i32 0, i32 2
  %68 = getelementptr inbounds nuw %struct._php_output_buffer, ptr %67, i32 0, i32 1
  store i64 0, ptr %68, align 8, !tbaa !128
  ret void
}

; Function Attrs: nounwind uwtable
define internal i32 @php_output_stack_apply_op(ptr noundef %0, ptr noundef %1) #0 {
  %3 = alloca i32, align 4
  %4 = alloca ptr, align 8
  %5 = alloca ptr, align 8
  %6 = alloca i32, align 4
  %7 = alloca i32, align 4
  %8 = alloca ptr, align 8
  %9 = alloca ptr, align 8
  %10 = alloca i32, align 4
  store ptr %0, ptr %4, align 8, !tbaa !4
  store ptr %1, ptr %5, align 8, !tbaa !4
  call void @llvm.lifetime.start.p0(i64 4, ptr %6) #15
  call void @llvm.lifetime.start.p0(i64 4, ptr %7) #15
  call void @llvm.lifetime.start.p0(i64 8, ptr %8) #15
  %11 = load ptr, ptr %4, align 8, !tbaa !4
  %12 = load ptr, ptr %11, align 8, !tbaa !55
  store ptr %12, ptr %8, align 8, !tbaa !55
  call void @llvm.lifetime.start.p0(i64 8, ptr %9) #15
  %13 = load ptr, ptr %5, align 8, !tbaa !4
  store ptr %13, ptr %9, align 8, !tbaa !69
  %14 = load ptr, ptr %8, align 8, !tbaa !55
  %15 = getelementptr inbounds nuw %struct._php_output_handler, ptr %14, i32 0, i32 1
  %16 = load i32, ptr %15, align 8, !tbaa !65
  %17 = and i32 %16, 8192
  store i32 %17, ptr %6, align 4, !tbaa !57
  %18 = icmp ne i32 %17, 0
  br i1 %18, label %19, label %20

19:                                               ; preds = %2
  store i32 0, ptr %7, align 4, !tbaa !57
  br label %24

20:                                               ; preds = %2
  %21 = load ptr, ptr %8, align 8, !tbaa !55
  %22 = load ptr, ptr %9, align 8, !tbaa !69
  %23 = call i32 @php_output_handler_op(ptr noundef %21, ptr noundef %22)
  store i32 %23, ptr %7, align 4, !tbaa !57
  br label %24

24:                                               ; preds = %20, %19
  %25 = load i32, ptr %7, align 4, !tbaa !57
  switch i32 %25, label %36 [
    i32 2, label %26
    i32 1, label %27
    i32 0, label %35
  ]

26:                                               ; preds = %24
  store i32 1, ptr %3, align 4
  store i32 1, ptr %10, align 4
  br label %56

27:                                               ; preds = %24
  %28 = load ptr, ptr %8, align 8, !tbaa !55
  %29 = getelementptr inbounds nuw %struct._php_output_handler, ptr %28, i32 0, i32 2
  %30 = load i32, ptr %29, align 4, !tbaa !83
  %31 = icmp ne i32 %30, 0
  br i1 %31, label %32, label %34

32:                                               ; preds = %27
  %33 = load ptr, ptr %9, align 8, !tbaa !69
  call void @php_output_context_swap(ptr noundef %33)
  br label %34

34:                                               ; preds = %32, %27
  store i32 0, ptr %3, align 4
  store i32 1, ptr %10, align 4
  br label %56

35:                                               ; preds = %24
  br label %36

36:                                               ; preds = %24, %35
  %37 = load i32, ptr %6, align 4, !tbaa !57
  %38 = icmp ne i32 %37, 0
  br i1 %38, label %39, label %47

39:                                               ; preds = %36
  %40 = load ptr, ptr %8, align 8, !tbaa !55
  %41 = getelementptr inbounds nuw %struct._php_output_handler, ptr %40, i32 0, i32 2
  %42 = load i32, ptr %41, align 4, !tbaa !83
  %43 = icmp ne i32 %42, 0
  br i1 %43, label %46, label %44

44:                                               ; preds = %39
  %45 = load ptr, ptr %9, align 8, !tbaa !69
  call void @php_output_context_pass(ptr noundef %45)
  br label %46

46:                                               ; preds = %44, %39
  br label %55

47:                                               ; preds = %36
  %48 = load ptr, ptr %8, align 8, !tbaa !55
  %49 = getelementptr inbounds nuw %struct._php_output_handler, ptr %48, i32 0, i32 2
  %50 = load i32, ptr %49, align 4, !tbaa !83
  %51 = icmp ne i32 %50, 0
  br i1 %51, label %52, label %54

52:                                               ; preds = %47
  %53 = load ptr, ptr %9, align 8, !tbaa !69
  call void @php_output_context_swap(ptr noundef %53)
  br label %54

54:                                               ; preds = %52, %47
  br label %55

55:                                               ; preds = %54, %46
  store i32 0, ptr %3, align 4
  store i32 1, ptr %10, align 4
  br label %56

56:                                               ; preds = %55, %34, %26
  call void @llvm.lifetime.end.p0(i64 8, ptr %9) #15
  call void @llvm.lifetime.end.p0(i64 8, ptr %8) #15
  call void @llvm.lifetime.end.p0(i64 4, ptr %7) #15
  call void @llvm.lifetime.end.p0(i64 4, ptr %6) #15
  %57 = load i32, ptr %3, align 4
  ret i32 %57
}