; Function Attrs: nounwind uwtable
define internal range(i32 0, 2) i32 @php_output_stack_apply_op(ptr noundef readonly captures(none) %0, ptr noundef %1) #0 {
  %3 = load ptr, ptr %0, align 8, !tbaa !18
  %4 = getelementptr inbounds nuw i8, ptr %3, i64 8
  %5 = load i32, ptr %4, align 8, !tbaa !54
  %6 = and i32 %5, 8192
  %.not = icmp eq i32 %6, 0
  br i1 %.not, label %7, label %35

7:                                                ; preds = %2
  %8 = tail call fastcc i32 @php_output_handler_op(ptr noundef nonnull %3, ptr noundef %1)
  switch i32 %8, label %56 [
    i32 2, label %82
    i32 1, label %9
  ]

9:                                                ; preds = %7
  %10 = getelementptr inbounds nuw i8, ptr %3, i64 12
  %11 = load i32, ptr %10, align 4, !tbaa !79
  %.not14 = icmp eq i32 %11, 0
  br i1 %.not14, label %82, label %12

12:                                               ; preds = %9
  %13 = getelementptr inbounds nuw i8, ptr %1, i64 8
  %14 = getelementptr inbounds nuw i8, ptr %1, i64 32
  %15 = load i32, ptr %14, align 8
  %16 = and i32 %15, 1
  %.not.i = icmp eq i32 %16, 0
  br i1 %.not.i, label %php_output_context_swap.exit, label %17

17:                                               ; preds = %12
  %18 = load ptr, ptr %13, align 8, !tbaa !52
  %.not15.i = icmp eq ptr %18, null
  br i1 %.not15.i, label %php_output_context_swap.exit, label %19

19:                                               ; preds = %17
  tail call void @_efree(ptr noundef nonnull %18) #22
  %.pre.i = load i32, ptr %14, align 8
  br label %php_output_context_swap.exit

php_output_context_swap.exit:                     ; preds = %12, %17, %19
  %20 = phi i32 [ %.pre.i, %19 ], [ %15, %17 ], [ %15, %12 ]
  %21 = getelementptr inbounds nuw i8, ptr %1, i64 40
  %22 = load ptr, ptr %21, align 8, !tbaa !56
  store ptr %22, ptr %13, align 8, !tbaa !52
  %23 = getelementptr inbounds nuw i8, ptr %1, i64 56
  %24 = load i64, ptr %23, align 8, !tbaa !57
  %25 = getelementptr inbounds nuw i8, ptr %1, i64 24
  store i64 %24, ptr %25, align 8, !tbaa !53
  %26 = getelementptr inbounds nuw i8, ptr %1, i64 64
  %27 = load i32, ptr %26, align 8
  %28 = and i32 %27, 1
  %29 = and i32 %20, -2
  %30 = or disjoint i32 %28, %29
  store i32 %30, ptr %14, align 8
  %31 = getelementptr inbounds nuw i8, ptr %1, i64 48
  %32 = load i64, ptr %31, align 8, !tbaa !58
  %33 = getelementptr inbounds nuw i8, ptr %1, i64 16
  store i64 %32, ptr %33, align 8, !tbaa !77
  store ptr null, ptr %21, align 8, !tbaa !56
  store i64 0, ptr %23, align 8, !tbaa !57
  %34 = and i32 %27, -2
  store i32 %34, ptr %26, align 8
  store i64 0, ptr %31, align 8, !tbaa !58
  br label %82

35:                                               ; preds = %2
  %36 = getelementptr inbounds nuw i8, ptr %3, i64 12
  %37 = load i32, ptr %36, align 4, !tbaa !79
  %.not16 = icmp eq i32 %37, 0
  br i1 %.not16, label %38, label %82

38:                                               ; preds = %35
  %39 = getelementptr inbounds nuw i8, ptr %1, i64 8
  %40 = load ptr, ptr %39, align 8, !tbaa !52
  %41 = getelementptr inbounds nuw i8, ptr %1, i64 40
  store ptr %40, ptr %41, align 8, !tbaa !56
  %42 = getelementptr inbounds nuw i8, ptr %1, i64 24
  %43 = load i64, ptr %42, align 8, !tbaa !53
  %44 = getelementptr inbounds nuw i8, ptr %1, i64 56
  store i64 %43, ptr %44, align 8, !tbaa !57
  %45 = getelementptr inbounds nuw i8, ptr %1, i64 16
  %46 = load i64, ptr %45, align 8, !tbaa !77
  %47 = getelementptr inbounds nuw i8, ptr %1, i64 48
  store i64 %46, ptr %47, align 8, !tbaa !58
  %48 = getelementptr inbounds nuw i8, ptr %1, i64 32
  %49 = load i32, ptr %48, align 8
  %50 = and i32 %49, 1
  %51 = getelementptr inbounds nuw i8, ptr %1, i64 64
  %52 = load i32, ptr %51, align 8
  %53 = and i32 %52, -2
  %54 = or disjoint i32 %53, %50
  store i32 %54, ptr %51, align 8
  store ptr null, ptr %39, align 8, !tbaa !52
  store i64 0, ptr %42, align 8, !tbaa !53
  %55 = and i32 %49, -2
  store i32 %55, ptr %48, align 8
  store i64 0, ptr %45, align 8, !tbaa !77
  br label %82

56:                                               ; preds = %7
  %57 = getelementptr inbounds nuw i8, ptr %3, i64 12
  %58 = load i32, ptr %57, align 4, !tbaa !79
  %.not15 = icmp eq i32 %58, 0
  br i1 %.not15, label %82, label %59

59:                                               ; preds = %56
  %60 = getelementptr inbounds nuw i8, ptr %1, i64 8
  %61 = getelementptr inbounds nuw i8, ptr %1, i64 32
  %62 = load i32, ptr %61, align 8
  %63 = and i32 %62, 1
  %.not.i17 = icmp eq i32 %63, 0
  br i1 %.not.i17, label %php_output_context_swap.exit20, label %64

64:                                               ; preds = %59
  %65 = load ptr, ptr %60, align 8, !tbaa !52
  %.not15.i18 = icmp eq ptr %65, null
  br i1 %.not15.i18, label %php_output_context_swap.exit20, label %66

66:                                               ; preds = %64
  tail call void @_efree(ptr noundef nonnull %65) #22
  %.pre.i19 = load i32, ptr %61, align 8
  br label %php_output_context_swap.exit20

php_output_context_swap.exit20:                   ; preds = %59, %64, %66
  %67 = phi i32 [ %.pre.i19, %66 ], [ %62, %64 ], [ %62, %59 ]
  %68 = getelementptr inbounds nuw i8, ptr %1, i64 40
  %69 = load ptr, ptr %68, align 8, !tbaa !56
  store ptr %69, ptr %60, align 8, !tbaa !52
  %70 = getelementptr inbounds nuw i8, ptr %1, i64 56
  %71 = load i64, ptr %70, align 8, !tbaa !57
  %72 = getelementptr inbounds nuw i8, ptr %1, i64 24
  store i64 %71, ptr %72, align 8, !tbaa !53
  %73 = getelementptr inbounds nuw i8, ptr %1, i64 64
  %74 = load i32, ptr %73, align 8
  %75 = and i32 %74, 1
  %76 = and i32 %67, -2
  %77 = or disjoint i32 %75, %76
  store i32 %77, ptr %61, align 8
  %78 = getelementptr inbounds nuw i8, ptr %1, i64 48
  %79 = load i64, ptr %78, align 8, !tbaa !58
  %80 = getelementptr inbounds nuw i8, ptr %1, i64 16
  store i64 %79, ptr %80, align 8, !tbaa !77
  store ptr null, ptr %68, align 8, !tbaa !56
  store i64 0, ptr %70, align 8, !tbaa !57
  %81 = and i32 %74, -2
  store i32 %81, ptr %73, align 8
  store i64 0, ptr %78, align 8, !tbaa !58
  br label %82

82:                                               ; preds = %38, %35, %php_output_context_swap.exit20, %56, %9, %php_output_context_swap.exit, %7
  %.0 = phi i32 [ 1, %7 ], [ 0, %php_output_context_swap.exit ], [ 0, %9 ], [ 0, %56 ], [ 0, %php_output_context_swap.exit20 ], [ 0, %35 ], [ 0, %38 ]
  ret i32 %.0
}